; Function Attrs: mustprogress nounwind uwtable
define hidden noundef i32 @_ZNK18CallStaticJavaNode21uncommon_trap_requestEv(ptr nocapture noundef nonnull readonly align 8 dereferenceable(145) %0) local_unnamed_addr #2 align 2 {
  %2 = getelementptr inbounds i8, ptr %0, i64 120
  %3 = load ptr, ptr %2, align 8
  %.not.i = icmp eq ptr %3, null
  br i1 %.not.i, label %_ZNK18CallStaticJavaNode16is_uncommon_trapEv.exit.thread, label %_ZNK18CallStaticJavaNode16is_uncommon_trapEv.exit

_ZNK18CallStaticJavaNode16is_uncommon_trapEv.exit: ; preds = %1
  %4 = tail call i32 @strcmp(ptr noundef nonnull dereferenceable(1) %3, ptr noundef nonnull dereferenceable(14) @.str.14) #17
  %.not1.i = icmp eq i32 %4, 0
  br i1 %.not1.i, label %5, label %_ZNK18CallStaticJavaNode16is_uncommon_trapEv.exit.thread

5:                                                ; preds = %_ZNK18CallStaticJavaNode16is_uncommon_trapEv.exit
  %6 = getelementptr inbounds i8, ptr %0, i64 8
  %7 = load ptr, ptr %6, align 8
  %8 = getelementptr inbounds i8, ptr %7, i64 40
  %9 = load ptr, ptr %8, align 8
  %10 = load ptr, ptr %9, align 8
  %11 = getelementptr inbounds i8, ptr %10, i64 40
  %12 = load ptr, ptr %11, align 8
  %13 = tail call noundef ptr %12(ptr noundef nonnull align 8 dereferenceable(52) %9) #15
  %14 = getelementptr inbounds i8, ptr %13, i64 24
  %15 = load i32, ptr %14, align 8
  br label %_ZNK18CallStaticJavaNode16is_uncommon_trapEv.exit.thread

_ZNK18CallStaticJavaNode16is_uncommon_trapEv.exit.thread: ; preds = %1, %_ZNK18CallStaticJavaNode16is_uncommon_trapEv.exit, %5
  %16 = phi i32 [ %15, %5 ], [ 0, %_ZNK18CallStaticJavaNode16is_uncommon_trapEv.exit ], [ 0, %1 ]
  ret i32 %16
}